target datalayout = "e-m:e-p270:32:32-p271:32:32-p272:64:64-i64:64-i128:128-f80:128-n8:16:32:64-S128"
target triple = "x86_64-pc-linux-gnu"

%"class.cv::reg::MapProjec" = type { %"class.cv::reg::Map", %"class.cv::Matx" }
%"class.cv::reg::Map" = type { ptr }
%"class.cv::Matx" = type { [9 x double] }
%"class.std::__shared_ptr" = type { ptr, %"class.std::__shared_count" }
%"class.std::__shared_count" = type { ptr }
%"struct.cv::Matx_MatMulOp" = type { i8 }

; Function Attrs: mustprogress nounwind uwtable
define linkonce_odr hidden noundef nonnull align 8 dereferenceable(8) ptr @_ZNK2cv4MatxIdLi3ELi3EEclEii(ptr noundef nonnull align 8 dereferenceable(72) %0, i32 noundef %1, i32 noundef %2) #1 comdat align 2 {
  %4 = alloca ptr, align 8
  %5 = alloca i32, align 4
  %6 = alloca i32, align 4
  store ptr %0, ptr %4, align 8
  store i32 %1, ptr %5, align 4
  store i32 %2, ptr %6, align 4
  %7 = load ptr, ptr %4, align 8
  %8 = getelementptr inbounds %"class.cv::Matx", ptr %7, i32 0, i32 0
  %9 = load i32, ptr %5, align 4
  %10 = mul nsw i32 %9, 3
  %11 = load i32, ptr %6, align 4
  %12 = add nsw i32 %10, %11
  %13 = sext i32 %12 to i64
  %14 = getelementptr inbounds [9 x double], ptr %8, i64 0, i64 %13
  ret ptr %14
}

; Function Attrs: mustprogress nounwind uwtable
define linkonce_odr hidden void @_ZN2cv4MatxIdLi3ELi3EEC2ILi3EEERKNS0_IdLi3EXT_EEERKNS0_IdXT_ELi3EEENS_13Matx_MatMulOpE(ptr noundef nonnull align 8 dereferenceable(72) %0, ptr noundef nonnull align 8 dereferenceable(72) %1, ptr noundef nonnull align 8 dereferenceable(72) %2, ptr noundef %3) unnamed_addr #1 comdat align 2 {
  %5 = alloca ptr, align 8
  %6 = alloca ptr, align 8
  %7 = alloca ptr, align 8
  %8 = alloca ptr, align 8
  %9 = alloca i32, align 4
  %10 = alloca i32, align 4
  %11 = alloca double, align 8
  %12 = alloca i32, align 4
  store ptr %0, ptr %5, align 8
  store ptr %1, ptr %6, align 8
  store ptr %2, ptr %7, align 8
  store ptr %3, ptr %8, align 8
  %13 = load ptr, ptr %5, align 8
  store i32 0, ptr %9, align 4
  br label %14

14:                                               ; preds = %54, %4
  %15 = load i32, ptr %9, align 4
  %16 = icmp slt i32 %15, 3
  br i1 %16, label %17, label %57

17:                                               ; preds = %14
  store i32 0, ptr %10, align 4
  br label %18

18:                                               ; preds = %50, %17
  %19 = load i32, ptr %10, align 4
  %20 = icmp slt i32 %19, 3
  br i1 %20, label %21, label %53

21:                                               ; preds = %18
  store double 0.000000e+00, ptr %11, align 8
  store i32 0, ptr %12, align 4
  br label %22

22:                                               ; preds = %38, %21
  %23 = load i32, ptr %12, align 4
  %24 = icmp slt i32 %23, 3
  br i1 %24, label %25, label %41

25:                                               ; preds = %22
  %26 = load ptr, ptr %6, align 8
  %27 = load i32, ptr %9, align 4
  %28 = load i32, ptr %12, align 4
  %29 = call noundef nonnull align 8 dereferenceable(8) ptr @_ZNK2cv4MatxIdLi3ELi3EEclEii(ptr noundef nonnull align 8 dereferenceable(72) %26, i32 noundef %27, i32 noundef %28)
  %30 = load double, ptr %29, align 8
  %31 = load ptr, ptr %7, align 8
  %32 = load i32, ptr %12, align 4
  %33 = load i32, ptr %10, align 4
  %34 = call noundef nonnull align 8 dereferenceable(8) ptr @_ZNK2cv4MatxIdLi3ELi3EEclEii(ptr noundef nonnull align 8 dereferenceable(72) %31, i32 noundef %32, i32 noundef %33)
  %35 = load double, ptr %34, align 8
  %36 = load double, ptr %11, align 8
  %37 = call double @llvm.fmuladd.f64(double %30, double %35, double %36)
  store double %37, ptr %11, align 8
  br label %38

38:                                               ; preds = %25
  %39 = load i32, ptr %12, align 4
  %40 = add nsw i32 %39, 1
  store i32 %40, ptr %12, align 4
  br label %22, !llvm.loop !12

41:                                               ; preds = %22
  %42 = load double, ptr %11, align 8
  %43 = getelementptr inbounds %"class.cv::Matx", ptr %13, i32 0, i32 0
  %44 = load i32, ptr %9, align 4
  %45 = mul nsw i32 %44, 3
  %46 = load i32, ptr %10, align 4
  %47 = add nsw i32 %45, %46
  %48 = sext i32 %47 to i64
  %49 = getelementptr inbounds [9 x double], ptr %43, i64 0, i64 %48
  store double %42, ptr %49, align 8
  br label %50

50:                                               ; preds = %41
  %51 = load i32, ptr %10, align 4
  %52 = add nsw i32 %51, 1
  store i32 %52, ptr %10, align 4
  br label %18, !llvm.loop !13

53:                                               ; preds = %18
  br label %54

54:                                               ; preds = %53
  %55 = load i32, ptr %9, align 4
  %56 = add nsw i32 %55, 1
  store i32 %56, ptr %9, align 4
  br label %14, !llvm.loop !14

57:                                               ; preds = %14
  ret void
}

; Function Attrs: mustprogress nounwind uwtable
define linkonce_odr hidden void @_ZN2cv13Matx_MatMulOpC2Ev(ptr noundef nonnull align 1 dereferenceable(1) %0) unnamed_addr #1 comdat align 2 {
  %2 = alloca ptr, align 8
  store ptr %0, ptr %2, align 8
  ret void
}

; Function Attrs: mustprogress nounwind uwtable
define linkonce_odr hidden noundef ptr @_ZNKSt12__shared_ptrIN2cv3reg3MapELN9__gnu_cxx12_Lock_policyE2EE3getEv(ptr noundef nonnull align 8 dereferenceable(16) %0) #1 comdat align 2 {
  %2 = alloca ptr, align 8
  store ptr %0, ptr %2, align 8
  %3 = load ptr, ptr %2, align 8
  %4 = getelementptr inbounds %"class.std::__shared_ptr", ptr %3, i32 0, i32 0
  %5 = load ptr, ptr %4, align 8
  ret ptr %5
}

; Function Attrs: mustprogress uwtable
define internal void @_ZN2cvmlIdLi3ELi3ELi3EEENS_4MatxIT_XT0_EXT1_EEERKNS1_IS2_XT0_EXT2_EEERKNS1_IS2_XT2_EXT1_EEE(ptr dead_on_unwind noalias writable sret(%"class.cv::Matx") align 8 %0, ptr noundef nonnull align 8 dereferenceable(72) %1, ptr noundef nonnull align 8 dereferenceable(72) %2) #0 {
  %4 = alloca ptr, align 8
  %5 = alloca ptr, align 8
  %6 = alloca %"struct.cv::Matx_MatMulOp", align 1
  store ptr %1, ptr %4, align 8
  store ptr %2, ptr %5, align 8
  %7 = load ptr, ptr %4, align 8
  %8 = load ptr, ptr %5, align 8
  call void @_ZN2cv13Matx_MatMulOpC2Ev(ptr noundef nonnull align 1 dereferenceable(1) %6)
  call void @_ZN2cv4MatxIdLi3ELi3EEC2ILi3EEERKNS0_IdLi3EXT_EEERKNS0_IdXT_ELi3EEENS_13Matx_MatMulOpE(ptr noundef nonnull align 8 dereferenceable(72) %0, ptr noundef nonnull align 8 dereferenceable(72) %7, ptr noundef nonnull align 8 dereferenceable(72) %8, ptr noundef %6)
  ret void
}

; Function Attrs: mustprogress nounwind uwtable
define linkonce_odr hidden noundef nonnull align 8 dereferenceable(72) ptr @_ZNK2cv3reg9MapProjec9getProjTrEv(ptr noundef nonnull align 8 dereferenceable(80) %0) #1 comdat align 2 {
  %2 = alloca ptr, align 8
  store ptr %0, ptr %2, align 8
  %3 = load ptr, ptr %2, align 8
  %4 = getelementptr inbounds %"class.cv::reg::MapProjec", ptr %3, i32 0, i32 1
  ret ptr %4
}

; Function Attrs: mustprogress nounwind uwtable
define linkonce_odr hidden noundef nonnull align 8 dereferenceable(8) ptr @_ZNK2cv3PtrINS_3reg3MapEEdeEv(ptr noundef nonnull align 8 dereferenceable(16) %0) #1 comdat align 2 {
  %2 = alloca ptr, align 8
  store ptr %0, ptr %2, align 8
  %3 = load ptr, ptr %2, align 8
  %4 = call noundef ptr @_ZNKSt12__shared_ptrIN2cv3reg3MapELN9__gnu_cxx12_Lock_policyE2EE3getEv(ptr noundef nonnull align 8 dereferenceable(16) %3) #11
  ret ptr %4
}

; Function Attrs: mustprogress uwtable
define void @_ZN2cv3reg9MapProjec7composeENS_3PtrINS0_3MapEEE(ptr noundef nonnull align 8 dereferenceable(80) %0, ptr noundef %1) unnamed_addr #0 align 2 {
  %3 = alloca ptr, align 8
  %4 = alloca ptr, align 8
  %5 = alloca ptr, align 8
  %6 = alloca %"class.cv::Matx", align 8
  store ptr %0, ptr %3, align 8
  store ptr %1, ptr %4, align 8
  %7 = load ptr, ptr %3, align 8
  %8 = call noundef nonnull align 8 dereferenceable(8) ptr @_ZNK2cv3PtrINS_3reg3MapEEdeEv(ptr noundef nonnull align 8 dereferenceable(16) %1) #11
  store ptr %8, ptr %5, align 8
  %9 = load ptr, ptr %5, align 8
  %10 = call noundef nonnull align 8 dereferenceable(72) ptr @_ZNK2cv3reg9MapProjec9getProjTrEv(ptr noundef nonnull align 8 dereferenceable(80) %9)
  %11 = getelementptr inbounds %"class.cv::reg::MapProjec", ptr %7, i32 0, i32 1
  call void @_ZN2cvmlIdLi3ELi3ELi3EEENS_4MatxIT_XT0_EXT1_EEERKNS1_IS2_XT0_EXT2_EEERKNS1_IS2_XT2_EXT1_EEE(ptr dead_on_unwind writable sret(%"class.cv::Matx") align 8 %6, ptr noundef nonnull align 8 dereferenceable(72) %10, ptr noundef nonnull align 8 dereferenceable(72) %11)
  %12 = getelementptr inbounds %"class.cv::reg::MapProjec", ptr %7, i32 0, i32 1
  call void @llvm.memcpy.p0.p0.i64(ptr align 8 %12, ptr align 8 %6, i64 72, i1 false)
  ret void
}