; Function Attrs: mustprogress nofree norecurse nosync nounwind memory(read, argmem: readwrite, inaccessiblemem: readwrite) uwtable
define void @_ZN2cv3reg9MapProjec7composeENS_3PtrINS0_3MapEEE(ptr nocapture noundef nonnull align 8 dereferenceable(80) %0, ptr nocapture noundef readonly %1) unnamed_addr #8 align 2 {
  %3 = alloca %"class.cv::Matx", align 8
  %4 = load ptr, ptr %1, align 8
  %5 = getelementptr inbounds i8, ptr %4, i64 8
  %6 = getelementptr inbounds i8, ptr %0, i64 8
  tail call void @llvm.experimental.noalias.scope.decl(metadata !25)
  br label %.preheader19.i.i

.preheader19.i.i:                                 ; preds = %20, %2
  %indvars.iv29.i.i = phi i64 [ 0, %2 ], [ %indvars.iv.next30.i.i, %20 ]
  %7 = mul nuw nsw i64 %indvars.iv29.i.i, 3
  br label %.preheader.i.i

.preheader.i.i:                                   ; preds = %17, %.preheader19.i.i
  %indvars.iv25.i.i = phi i64 [ 0, %.preheader19.i.i ], [ %indvars.iv.next26.i.i, %17 ]
  br label %8

8:                                                ; preds = %8, %.preheader.i.i
  %indvars.iv.i.i = phi i64 [ 0, %.preheader.i.i ], [ %indvars.iv.next.i.i, %8 ]
  %.01620.i.i = phi double [ 0.000000e+00, %.preheader.i.i ], [ %16, %8 ]
  %9 = add nuw nsw i64 %indvars.iv.i.i, %7
  %10 = getelementptr inbounds [9 x double], ptr %5, i64 0, i64 %9
  %11 = load double, ptr %10, align 8, !noalias !25
  %12 = mul nuw nsw i64 %indvars.iv.i.i, 3
  %13 = add nuw nsw i64 %12, %indvars.iv25.i.i
  %14 = getelementptr inbounds [9 x double], ptr %6, i64 0, i64 %13
  %15 = load double, ptr %14, align 8, !noalias !25
  %16 = tail call double @llvm.fmuladd.f64(double %11, double %15, double %.01620.i.i)
  %indvars.iv.next.i.i = add nuw nsw i64 %indvars.iv.i.i, 1
  %exitcond.not.i.i = icmp eq i64 %indvars.iv.next.i.i, 3
  br i1 %exitcond.not.i.i, label %17, label %8, !llvm.loop !28

17:                                               ; preds = %8
  %18 = add nuw nsw i64 %indvars.iv25.i.i, %7
  %19 = getelementptr inbounds [9 x double], ptr %3, i64 0, i64 %18
  store double %16, ptr %19, align 8, !alias.scope !25
  %indvars.iv.next26.i.i = add nuw nsw i64 %indvars.iv25.i.i, 1
  %exitcond28.not.i.i = icmp eq i64 %indvars.iv.next26.i.i, 3
  br i1 %exitcond28.not.i.i, label %20, label %.preheader.i.i, !llvm.loop !29

20:                                               ; preds = %17
  %indvars.iv.next30.i.i = add nuw nsw i64 %indvars.iv29.i.i, 1
  %exitcond32.not.i.i = icmp eq i64 %indvars.iv.next30.i.i, 3
  br i1 %exitcond32.not.i.i, label %_ZN2cvmlIdLi3ELi3ELi3EEENS_4MatxIT_XT0_EXT1_EEERKNS1_IS2_XT0_EXT2_EEERKNS1_IS2_XT2_EXT1_EEE.exit, label %.preheader19.i.i, !llvm.loop !30

_ZN2cvmlIdLi3ELi3ELi3EEENS_4MatxIT_XT0_EXT1_EEERKNS1_IS2_XT0_EXT2_EEERKNS1_IS2_XT2_EXT1_EEE.exit: ; preds = %20
  call void @llvm.memcpy.p0.p0.i64(ptr noundef nonnull align 8 dereferenceable(72) %6, ptr noundef nonnull align 8 dereferenceable(72) %3, i64 72, i1 false)
  ret void
}